; Function Attrs: null_pointer_is_valid sspstrong uwtable
define internal fastcc void @dissect_oampdu_add_queue_object(ptr noundef %0, ptr noundef %1, i32 noundef %2) unnamed_addr #0 {
  %4 = load i32, ptr @hf_oam_dpoe_user_port_object_result_rr_queue_obj_type, align 4
  %5 = tail call ptr @proto_tree_add_item(ptr noundef %0, i32 noundef %4, ptr noundef %1, i32 noundef %2, i32 noundef 2, i32 noundef 0)
  %6 = load i32, ptr @hf_oam_dpoe_user_port_object_result_rr_queue_obj_inst, align 4
  %7 = add i32 %2, 2
  %8 = tail call ptr @proto_tree_add_item(ptr noundef %0, i32 noundef %6, ptr noundef %1, i32 noundef %7, i32 noundef 1, i32 noundef 0)
  %9 = load i32, ptr @hf_oam_dpoe_user_port_object_result_rr_queue_queue_index, align 4
  %10 = add i32 %2, 3
  %11 = tail call ptr @proto_tree_add_item(ptr noundef %0, i32 noundef %9, ptr noundef %1, i32 noundef %10, i32 noundef 1, i32 noundef 0)
  ret void
}